target datalayout = "e-m:e-p270:32:32-p271:32:32-p272:64:64-i64:64-i128:128-f80:128-n8:16:32:64-S128"
target triple = "x86_64-pc-linux-gnu"

%"class.std::__shared_count" = type { ptr }
%"class.pxrInternal_v0_24__pxrReserved__::TfType" = type { ptr }
%"class.pxrInternal_v0_24__pxrReserved__::JsValue" = type { %"class.std::shared_ptr.87" }
%"class.std::shared_ptr.87" = type { %"class.std::__shared_ptr.88" }
%"class.std::__shared_ptr.88" = type { ptr, %"class.std::__shared_count" }
%class.anon.95 = type { ptr }

; Function Attrs: mustprogress uwtable
define linkonce_odr noundef zeroext i1 @_ZNK32pxrInternal_v0_24__pxrReserved__7JsValue4_GetEPb(ptr noundef nonnull align 8 dereferenceable(16) %0, ptr noundef %1) #2 comdat align 2 {
  %3 = alloca ptr, align 8
  %4 = alloca ptr, align 8
  store ptr %0, ptr %3, align 8
  store ptr %1, ptr %4, align 8
  %5 = load ptr, ptr %3, align 8
  %6 = call noundef zeroext i1 @_ZNK32pxrInternal_v0_24__pxrReserved__7JsValue7GetBoolEv(ptr noundef nonnull align 8 dereferenceable(16) %5)
  ret i1 %6
}

; Function Attrs: mustprogress uwtable
define linkonce_odr noundef zeroext i1 @_ZNK32pxrInternal_v0_24__pxrReserved__7JsValue3_IsEPb(ptr noundef nonnull align 8 dereferenceable(16) %0, ptr noundef %1) #2 comdat align 2 {
  %3 = alloca ptr, align 8
  %4 = alloca ptr, align 8
  store ptr %0, ptr %3, align 8
  store ptr %1, ptr %4, align 8
  %5 = load ptr, ptr %3, align 8
  %6 = call noundef zeroext i1 @_ZNK32pxrInternal_v0_24__pxrReserved__7JsValue6IsBoolEv(ptr noundef nonnull align 8 dereferenceable(16) %5)
  ret i1 %6
}

; Function Attrs: mustprogress uwtable
define linkonce_odr noundef zeroext i1 @_ZNK32pxrInternal_v0_24__pxrReserved__7JsValue3GetIbbEET0_v(ptr noundef nonnull align 8 dereferenceable(16) %0) #2 comdat align 2 {
  %2 = alloca ptr, align 8
  store ptr %0, ptr %2, align 8
  %3 = load ptr, ptr %2, align 8
  %4 = call noundef zeroext i1 @_ZNK32pxrInternal_v0_24__pxrReserved__7JsValue4_GetEPb(ptr noundef nonnull align 8 dereferenceable(16) %3, ptr noundef null)
  ret i1 %4
}

; Function Attrs: mustprogress uwtable
define linkonce_odr noundef zeroext i1 @_ZNK32pxrInternal_v0_24__pxrReserved__7JsValue2IsIbEEbv(ptr noundef nonnull align 8 dereferenceable(16) %0) #2 comdat align 2 {
  %2 = alloca ptr, align 8
  store ptr %0, ptr %2, align 8
  %3 = load ptr, ptr %2, align 8
  %4 = call noundef zeroext i1 @_ZNK32pxrInternal_v0_24__pxrReserved__7JsValue3_IsEPb(ptr noundef nonnull align 8 dereferenceable(16) %3, ptr noundef null)
  ret i1 %4
}

; Function Attrs: mustprogress uwtable
define internal noundef zeroext i1 @_ZZN32pxrInternal_v0_24__pxrReserved__12_GLOBAL__N_117_BehaviorRegistry37RegisterPlugConfiguredBehaviorForTypeERKNS_6TfTypeERSt10shared_ptrINS_30UsdShadeConnectableAPIBehaviorEEENKUlRKNSt7__cxx1112basic_stringIcSt11char_traitsIcESaIcEEEbE_clESG_b(ptr noundef nonnull align 8 dereferenceable(8) %0, ptr noundef nonnull align 8 dereferenceable(32) %1, i1 noundef zeroext %2) #2 align 2 personality ptr @__gxx_personality_v0 {
  %4 = alloca i1, align 1
  %5 = alloca ptr, align 8
  %6 = alloca ptr, align 8
  %7 = alloca i8, align 1
  %8 = alloca ptr, align 8
  %9 = alloca %"class.pxrInternal_v0_24__pxrReserved__::JsValue", align 8
  %10 = alloca %"class.pxrInternal_v0_24__pxrReserved__::TfType", align 8
  %11 = alloca ptr, align 8
  %12 = alloca i32, align 4
  %13 = alloca i32, align 4
  store ptr %0, ptr %5, align 8
  store ptr %1, ptr %6, align 8
  %14 = zext i1 %2 to i8
  store i8 %14, ptr %7, align 1
  %15 = load ptr, ptr %5, align 8
  %16 = call noundef nonnull align 8 dereferenceable(104) ptr @_ZN32pxrInternal_v0_24__pxrReserved__12PlugRegistry11GetInstanceEv()
  store ptr %16, ptr %8, align 8
  %17 = load ptr, ptr %8, align 8
  %18 = getelementptr inbounds nuw %class.anon.95, ptr %15, i32 0, i32 0
  %19 = load ptr, ptr %18, align 8
  call void @llvm.memcpy.p0.p0.i64(ptr align 8 %10, ptr align 8 %19, i64 8, i1 false)
  %20 = load ptr, ptr %6, align 8
  %21 = getelementptr inbounds nuw %"class.pxrInternal_v0_24__pxrReserved__::TfType", ptr %10, i32 0, i32 0
  %22 = load ptr, ptr %21, align 8
  call void @_ZNK32pxrInternal_v0_24__pxrReserved__12PlugRegistry25GetDataFromPluginMetaDataENS_6TfTypeERKNSt7__cxx1112basic_stringIcSt11char_traitsIcESaIcEEE(ptr dead_on_unwind writable sret(%"class.pxrInternal_v0_24__pxrReserved__::JsValue") align 8 %9, ptr noundef nonnull align 8 dereferenceable(104) %17, ptr %22, ptr noundef nonnull align 8 dereferenceable(32) %20)
  %23 = invoke noundef zeroext i1 @_ZNK32pxrInternal_v0_24__pxrReserved__7JsValue2IsIbEEbv(ptr noundef nonnull align 8 dereferenceable(16) %9)
          to label %24 unwind label %28

24:                                               ; preds = %3
  br i1 %23, label %25, label %32

25:                                               ; preds = %24
  %26 = invoke noundef zeroext i1 @_ZNK32pxrInternal_v0_24__pxrReserved__7JsValue3GetIbbEET0_v(ptr noundef nonnull align 8 dereferenceable(16) %9)
          to label %27 unwind label %28

27:                                               ; preds = %25
  store i1 %26, ptr %4, align 1
  store i32 1, ptr %13, align 4
  br label %35

28:                                               ; preds = %25, %3
  %29 = landingpad { ptr, i32 }
          cleanup
  %30 = extractvalue { ptr, i32 } %29, 0
  store ptr %30, ptr %11, align 8
  %31 = extractvalue { ptr, i32 } %29, 1
  store i32 %31, ptr %12, align 4
  call void @_ZN32pxrInternal_v0_24__pxrReserved__7JsValueD2Ev(ptr noundef nonnull align 8 dereferenceable(16) %9) #11
  br label %37

32:                                               ; preds = %24
  %33 = load i8, ptr %7, align 1
  %34 = trunc i8 %33 to i1
  store i1 %34, ptr %4, align 1
  store i32 1, ptr %13, align 4
  br label %35

35:                                               ; preds = %32, %27
  call void @_ZN32pxrInternal_v0_24__pxrReserved__7JsValueD2Ev(ptr noundef nonnull align 8 dereferenceable(16) %9) #11
  %36 = load i1, ptr %4, align 1
  ret i1 %36

37:                                               ; preds = %28
  %38 = load ptr, ptr %11, align 8
  %39 = load i32, ptr %12, align 4
  %40 = insertvalue { ptr, i32 } poison, ptr %38, 0
  %41 = insertvalue { ptr, i32 } %40, i32 %39, 1
  resume { ptr, i32 } %41
}