; Function Attrs: mustprogress uwtable
define internal fastcc noundef zeroext i1 @_ZZN32pxrInternal_v0_24__pxrReserved__12_GLOBAL__N_117_BehaviorRegistry37RegisterPlugConfiguredBehaviorForTypeERKNS_6TfTypeERSt10shared_ptrINS_30UsdShadeConnectableAPIBehaviorEEENKUlRKNSt7__cxx1112basic_stringIcSt11char_traitsIcESaIcEEEbE_clESG_b(ptr nocapture noundef nonnull readonly align 8 dereferenceable(8) %0, ptr noundef nonnull align 8 dereferenceable(32) %1, i1 noundef zeroext %2) unnamed_addr #3 align 2 personality ptr @__gxx_personality_v0 {
  %4 = alloca %"class.pxrInternal_v0_24__pxrReserved__::JsValue", align 8
  %5 = tail call noundef nonnull align 8 dereferenceable(104) ptr @_ZN32pxrInternal_v0_24__pxrReserved__12PlugRegistry11GetInstanceEv()
  %6 = load ptr, ptr %0, align 8
  %.sroa.0.0.copyload = load ptr, ptr %6, align 8
  call void @_ZNK32pxrInternal_v0_24__pxrReserved__12PlugRegistry25GetDataFromPluginMetaDataENS_6TfTypeERKNSt7__cxx1112basic_stringIcSt11char_traitsIcESaIcEEE(ptr dead_on_unwind nonnull writable sret(%"class.pxrInternal_v0_24__pxrReserved__::JsValue") align 8 %4, ptr noundef nonnull align 8 dereferenceable(104) %5, ptr %.sroa.0.0.copyload, ptr noundef nonnull align 8 dereferenceable(32) %1)
  %7 = invoke noundef zeroext i1 @_ZNK32pxrInternal_v0_24__pxrReserved__7JsValue6IsBoolEv(ptr noundef nonnull align 8 dereferenceable(16) %4)
          to label %_ZNK32pxrInternal_v0_24__pxrReserved__7JsValue2IsIbEEbv.exit unwind label %10

_ZNK32pxrInternal_v0_24__pxrReserved__7JsValue2IsIbEEbv.exit: ; preds = %3
  br i1 %7, label %8, label %_ZNK32pxrInternal_v0_24__pxrReserved__7JsValue3GetIbbEET0_v.exit

8:                                                ; preds = %_ZNK32pxrInternal_v0_24__pxrReserved__7JsValue2IsIbEEbv.exit
  %9 = invoke noundef zeroext i1 @_ZNK32pxrInternal_v0_24__pxrReserved__7JsValue7GetBoolEv(ptr noundef nonnull align 8 dereferenceable(16) %4)
          to label %_ZNK32pxrInternal_v0_24__pxrReserved__7JsValue3GetIbbEET0_v.exit unwind label %10

10:                                               ; preds = %8, %3
  %11 = landingpad { ptr, i32 }
          cleanup
  call void @_ZN32pxrInternal_v0_24__pxrReserved__7JsValueD2Ev(ptr noundef nonnull align 8 dereferenceable(16) %4) #18
  resume { ptr, i32 } %11

_ZNK32pxrInternal_v0_24__pxrReserved__7JsValue3GetIbbEET0_v.exit: ; preds = %8, %_ZNK32pxrInternal_v0_24__pxrReserved__7JsValue2IsIbEEbv.exit
  %.0 = phi i1 [ %2, %_ZNK32pxrInternal_v0_24__pxrReserved__7JsValue2IsIbEEbv.exit ], [ %9, %8 ]
  %12 = getelementptr inbounds nuw i8, ptr %4, i64 8
  %13 = load ptr, ptr %12, align 8
  %.not.i.i.i.i = icmp eq ptr %13, null
  br i1 %.not.i.i.i.i, label %_ZN32pxrInternal_v0_24__pxrReserved__7JsValueD2Ev.exit, label %14

14:                                               ; preds = %_ZNK32pxrInternal_v0_24__pxrReserved__7JsValue3GetIbbEET0_v.exit
  %15 = getelementptr inbounds nuw i8, ptr %13, i64 8
  %16 = load atomic i64, ptr %15 acquire, align 8
  %17 = icmp eq i64 %16, 4294967297
  %18 = trunc i64 %16 to i32
  br i1 %17, label %19, label %24

19:                                               ; preds = %14
  store i32 0, ptr %15, align 8
  %20 = getelementptr inbounds nuw i8, ptr %13, i64 12
  store i32 0, ptr %20, align 4
  %21 = load ptr, ptr %13, align 8
  %22 = getelementptr inbounds i8, ptr %21, i64 16
  %23 = load ptr, ptr %22, align 8
  call void %23(ptr noundef nonnull align 8 dereferenceable(16) %13) #18
  br label %_ZNSt16_Sp_counted_baseILN9__gnu_cxx12_Lock_policyE2EE24_M_release_last_use_coldEv.exit.sink.split.i.i.i.i.i

24:                                               ; preds = %14
  %25 = load i8, ptr @__libc_single_threaded, align 1
  %.not.i.i.i.i.i = icmp eq i8 %25, 0
  br i1 %.not.i.i.i.i.i, label %28, label %26

26:                                               ; preds = %24
  %27 = add nsw i32 %18, -1
  store i32 %27, ptr %15, align 4
  br label %30

28:                                               ; preds = %24
  %29 = atomicrmw volatile add ptr %15, i32 -1 acq_rel, align 4
  br label %30

30:                                               ; preds = %28, %26
  %.0.i.i.i.i.i = phi i32 [ %18, %26 ], [ %29, %28 ]
  %31 = icmp eq i32 %.0.i.i.i.i.i, 1
  br i1 %31, label %32, label %_ZN32pxrInternal_v0_24__pxrReserved__7JsValueD2Ev.exit

32:                                               ; preds = %30
  %33 = load ptr, ptr %13, align 8
  %34 = getelementptr inbounds i8, ptr %33, i64 16
  %35 = load ptr, ptr %34, align 8
  call void %35(ptr noundef nonnull align 8 dereferenceable(16) %13) #18
  %36 = getelementptr inbounds nuw i8, ptr %13, i64 12
  %37 = load i8, ptr @__libc_single_threaded, align 1
  %.not.i.i.i.i.i.i.i = icmp eq i8 %37, 0
  br i1 %.not.i.i.i.i.i.i.i, label %41, label %38

38:                                               ; preds = %32
  %39 = load i32, ptr %36, align 4
  %40 = add nsw i32 %39, -1
  store i32 %40, ptr %36, align 4
  br label %43

41:                                               ; preds = %32
  %42 = atomicrmw volatile add ptr %36, i32 -1 acq_rel, align 4
  br label %43

43:                                               ; preds = %41, %38
  %.0.i.i.i.i.i.i.i = phi i32 [ %39, %38 ], [ %42, %41 ]
  %44 = icmp eq i32 %.0.i.i.i.i.i.i.i, 1
  br i1 %44, label %_ZNSt16_Sp_counted_baseILN9__gnu_cxx12_Lock_policyE2EE24_M_release_last_use_coldEv.exit.sink.split.i.i.i.i.i, label %_ZN32pxrInternal_v0_24__pxrReserved__7JsValueD2Ev.exit

_ZNSt16_Sp_counted_baseILN9__gnu_cxx12_Lock_policyE2EE24_M_release_last_use_coldEv.exit.sink.split.i.i.i.i.i: ; preds = %43, %19
  %45 = load ptr, ptr %13, align 8
  %46 = getelementptr inbounds i8, ptr %45, i64 24
  %47 = load ptr, ptr %46, align 8
  call void %47(ptr noundef nonnull align 8 dereferenceable(16) %13) #18
  br label %_ZN32pxrInternal_v0_24__pxrReserved__7JsValueD2Ev.exit

_ZN32pxrInternal_v0_24__pxrReserved__7JsValueD2Ev.exit: ; preds = %_ZNK32pxrInternal_v0_24__pxrReserved__7JsValue3GetIbbEET0_v.exit, %30, %43, %_ZNSt16_Sp_counted_baseILN9__gnu_cxx12_Lock_policyE2EE24_M_release_last_use_coldEv.exit.sink.split.i.i.i.i.i
  ret i1 %.0
}